; Function Attrs: uwtable
define dso_local void @_ZThn16_N3net14QuicConnection24PopulateStopWaitingFrameEPNS_20QuicStopWaitingFrameE(ptr noundef %this, ptr nocapture noundef %stop_waiting) unnamed_addr #13 align 2 {
entry:
  %0 = load i8, ptr %stop_waiting, align 8
  %sent_packet_manager_.i.i = getelementptr inbounds i8, ptr %this, i64 3176
  %1 = load ptr, ptr %sent_packet_manager_.i.i, align 8
  %vtable.i.i = load ptr, ptr %1, align 8
  %vfn.i.i = getelementptr inbounds i8, ptr %vtable.i.i, i64 112
  %2 = load ptr, ptr %vfn.i.i, align 8
  %call2.i.i = tail call noundef i64 %2(ptr noundef nonnull align 8 dereferenceable(8) %1, i8 noundef zeroext %0)
  %least_unacked.i = getelementptr inbounds i8, ptr %stop_waiting, i64 8
  store i64 %call2.i.i, ptr %least_unacked.i, align 8
  %quic_version_.i.i.i = getelementptr inbounds i8, ptr %this, i64 284
  %3 = load i32, ptr %quic_version_.i.i.i, align 4
  %cmp.i = icmp slt i32 %3, 34
  br i1 %cmp.i, label %if.then.i, label %_ZN3net14QuicConnection24PopulateStopWaitingFrameEPNS_20QuicStopWaitingFrameE.exit

if.then.i:                                        ; preds = %entry
  %sent_entropy_manager_.i = getelementptr inbounds i8, ptr %this, i64 1096
  %sub.i = add i64 %call2.i.i, -1
  %call4.i = tail call noundef zeroext i8 @_ZN3net22QuicSentEntropyManager20GetCumulativeEntropyEm(ptr noundef nonnull align 8 dereferenceable(128) %sent_entropy_manager_.i, i64 noundef %sub.i)
  %entropy_hash.i = getelementptr inbounds i8, ptr %stop_waiting, i64 1
  store i8 %call4.i, ptr %entropy_hash.i, align 1
  br label %_ZN3net14QuicConnection24PopulateStopWaitingFrameEPNS_20QuicStopWaitingFrameE.exit

_ZN3net14QuicConnection24PopulateStopWaitingFrameEPNS_20QuicStopWaitingFrameE.exit: ; preds = %entry, %if.then.i
  ret void
}